; Function Attrs: mustprogress uwtable
define void @_ZN8proxygen6WindowC2Ej(ptr noundef nonnull align 4 captures(none) dereferenceable(8) initializes((0, 8)) %this, i32 noundef %capacity) unnamed_addr #0 align 2 personality ptr @__gxx_personality_v0 {
entry:
  %ref.tmp2 = alloca %"class.google::LogMessageFatal", align 8
  store i32 0, ptr %this, align 4
  %capacity_ = getelementptr inbounds nuw i8, ptr %this, i64 4
  store i32 0, ptr %capacity_, align 4
  %call = tail call noundef zeroext i1 @_ZN8proxygen6Window11setCapacityEj(ptr noundef nonnull align 4 dereferenceable(8) %this, i32 noundef %capacity)
  br i1 %call, label %cleanup.done, label %cond.false

cond.false:                                       ; preds = %entry
  call void @_ZN6google15LogMessageFatalC1EPKci(ptr noundef nonnull align 8 dereferenceable(96) %ref.tmp2, ptr noundef nonnull @.str, i32 noundef 17)
  %call3 = invoke noundef nonnull align 8 dereferenceable(8) ptr @_ZN6google10LogMessage6streamEv(ptr noundef nonnull align 8 dereferenceable(96) %ref.tmp2)
          to label %invoke.cont unwind label %lpad

invoke.cont:                                      ; preds = %cond.false
  %call5 = invoke noundef nonnull align 8 dereferenceable(8) ptr @_ZStlsISt11char_traitsIcEERSt13basic_ostreamIcT_ES5_PKc(ptr noundef nonnull align 8 dereferenceable(8) %call3, ptr noundef nonnull @.str.1)
          to label %cleanup.action unwind label %lpad

cleanup.action:                                   ; preds = %invoke.cont
  call void @_ZN6google15LogMessageFatalD1Ev(ptr noundef nonnull align 8 dereferenceable(96) %ref.tmp2) #6
  unreachable

lpad:                                             ; preds = %invoke.cont, %cond.false
  %0 = landingpad { ptr, i32 }
          cleanup
  call void @_ZN6google15LogMessageFatalD1Ev(ptr noundef nonnull align 8 dereferenceable(96) %ref.tmp2) #6
  unreachable

cleanup.done:                                     ; preds = %entry
  ret void
}